; Function Attrs: nounwind uwtable
define hidden void @zif_xml_get_current_column_number(ptr nocapture noundef readonly %0, ptr nocapture noundef writeonly %1) #0 {
  %3 = alloca ptr, align 8
  %4 = getelementptr inbounds i8, ptr %0, i64 44
  %5 = load i32, ptr %4, align 4
  %6 = load ptr, ptr @xml_parser_ce, align 8
  %7 = call i32 (i32, ptr, ...) @zend_parse_parameters(i32 noundef %5, ptr noundef nonnull @.str.40, ptr noundef nonnull %3, ptr noundef %6) #16
  %8 = icmp eq i32 %7, -1
  br i1 %8, label %9, label %12

9:                                                ; preds = %2
  %10 = load ptr, ptr getelementptr inbounds (%struct._zend_executor_globals, ptr @executor_globals, i64 0, i32 50), align 8
  %11 = icmp ne ptr %10, null
  call void @llvm.assume(i1 %11)
  br label %20

12:                                               ; preds = %2
  %13 = load ptr, ptr %3, align 8
  %14 = load ptr, ptr %13, align 8
  %15 = getelementptr inbounds i8, ptr %14, i64 -520
  %16 = load ptr, ptr %15, align 8
  %17 = call i32 @php_XML_GetCurrentColumnNumber(ptr noundef %16) #16
  %18 = sext i32 %17 to i64
  store i64 %18, ptr %1, align 8
  %19 = getelementptr inbounds i8, ptr %1, i64 8
  store i32 4, ptr %19, align 8
  br label %20

20:                                               ; preds = %12, %9
  ret void
}